target datalayout = "e-m:e-p270:32:32-p271:32:32-p272:64:64-i64:64-i128:128-f80:128-n8:16:32:64-S128"
target triple = "x86_64-pc-linux-gnu"

%struct._cms_io_handler = type { ptr, ptr, i32, i32, [256 x i8], ptr, ptr, ptr, ptr, ptr }
%struct.cmsDateTimeNumber = type { i16, i16, i16, i16, i16, i16 }

; Function Attrs: nounwind uwtable
define internal i32 @Type_DateTime_Write(ptr noundef %0, ptr noundef %1, ptr noundef %2, i32 noundef %3) #0 {
  %5 = alloca i32, align 4
  %6 = alloca ptr, align 8
  %7 = alloca ptr, align 8
  %8 = alloca ptr, align 8
  %9 = alloca i32, align 4
  %10 = alloca ptr, align 8
  %11 = alloca %struct.cmsDateTimeNumber, align 2
  store ptr %0, ptr %6, align 8
  store ptr %1, ptr %7, align 8
  store ptr %2, ptr %8, align 8
  store i32 %3, ptr %9, align 4
  %12 = load ptr, ptr %8, align 8
  store ptr %12, ptr %10, align 8
  %13 = load ptr, ptr %10, align 8
  call void @_cmsEncodeDateTimeNumber(ptr noundef %11, ptr noundef %13)
  %14 = load ptr, ptr %7, align 8
  %15 = getelementptr inbounds %struct._cms_io_handler, ptr %14, i32 0, i32 9
  %16 = load ptr, ptr %15, align 8
  %17 = load ptr, ptr %7, align 8
  %18 = call i32 %16(ptr noundef %17, i32 noundef 12, ptr noundef %11)
  %19 = icmp ne i32 %18, 0
  br i1 %19, label %21, label %20

20:                                               ; preds = %4
  store i32 0, ptr %5, align 4
  br label %22

21:                                               ; preds = %4
  store i32 1, ptr %5, align 4
  br label %22

22:                                               ; preds = %21, %20
  %23 = load i32, ptr %5, align 4
  ret i32 %23
}