; Function Attrs: nounwind uwtable
define internal range(i32 0, 2) i32 @Type_DateTime_Write(ptr nocapture readnone %0, ptr noundef %1, ptr noundef %2, i32 %3) #0 {
  %5 = alloca %struct.cmsDateTimeNumber, align 2
  call void @_cmsEncodeDateTimeNumber(ptr noundef nonnull %5, ptr noundef %2) #13
  %6 = getelementptr inbounds i8, ptr %1, i64 312
  %7 = load ptr, ptr %6, align 8
  %8 = call i32 %7(ptr noundef %1, i32 noundef 12, ptr noundef nonnull %5) #13
  %.not = icmp ne i32 %8, 0
  %. = zext i1 %.not to i32
  ret i32 %.
}